; Function Attrs: nounwind sspstrong uwtable
define dso_local range(i32 -2147483648, 1) i32 @qed_write_l1_table_sync(ptr noundef %s, i32 noundef %index, i32 noundef %n) #0 {
entry:
  %0 = load ptr, ptr %s, align 8
  %file.i = getelementptr inbounds nuw i8, ptr %0, i64 16840
  %1 = load ptr, ptr %file.i, align 8
  %tobool.not.i = icmp eq ptr %1, null
  br i1 %tobool.not.i, label %qed_write_l1_table.exit, label %if.then.i

if.then.i:                                        ; preds = %entry
  %2 = load ptr, ptr %1, align 8
  tail call void @bdrv_co_debug_event(ptr noundef %2, i32 noundef 0) #6
  br label %qed_write_l1_table.exit

qed_write_l1_table.exit:                          ; preds = %entry, %if.then.i
  %l1_table_offset.i = getelementptr inbounds nuw i8, ptr %s, i64 48
  %3 = load i64, ptr %l1_table_offset.i, align 8
  %l1_table.i = getelementptr inbounds nuw i8, ptr %s, i64 120
  %4 = load ptr, ptr %l1_table.i, align 8
  %call.i = tail call range(i32 -2147483648, 1) i32 @qed_write_table(ptr noundef nonnull %s, i64 noundef %3, ptr noundef %4, i32 noundef %index, i32 noundef %n, i1 noundef zeroext false)
  ret i32 %call.i
}